
========================================================================

** ELF Header Information

    File Name: .\Objects\first.axf

    Machine class: ELFCLASS32 (32-bit)
    Data encoding: ELFDATA2LSB (Little endian)
    Header version: EV_CURRENT (Current version)
    Operating System ABI: none
    ABI Version: 0
    File Type: ET_EXEC (Executable) (2)
    Machine: EM_ARM (ARM)

    Image Entry point: 0x000000b5
    Flags: EF_ARM_HASENTRY + EF_ARM_ABI_FLOAT_SOFT (0x05000202)

    ARM ELF revision: 5 (ABI version 2)

    Conforms to Soft float procedure-call standard

    Built with
    Component: Arm Compiler for Embedded 6.21 Tool: armasm [5ec1f200]
    Component: Arm Compiler for Embedded 6.21 Tool: armlink [5ec1fa00]

    Header size: 52 bytes (0x34)
    Program header entry size: 32 bytes (0x20)
    Section header entry size: 40 bytes (0x28)

    Program header entries: 1
    Section header entries: 13

    Program header offset: 9648 (0x000025b0)
    Section header offset: 9680 (0x000025d0)

    Section header string table index: 12

========================================================================

** Program header #0

    Type          : PT_LOAD (1)
    File Offset   : 56 (0x38)
    Virtual Addr  : 0x00000000
    Physical Addr : 0x00000000
    Size in file  : 488 bytes (0x1e8)
    Size in memory: 1516 bytes (0x5ec)
    Flags         : PF_X + PF_W + PF_R + PF_ARM_ENTRY (0x80000007)
    Alignment     : 8


========================================================================

** Section #1

    Name        : ER_RO
    Type        : SHT_PROGBITS (0x00000001)
    Flags       : SHF_ALLOC + SHF_EXECINSTR (0x00000006)
    Addr        : 0x00000000
    File Offset : 56 (0x38)
    Size        : 488 bytes (0x1e8)
    Link        : SHN_UNDEF
    Info        : 0
    Alignment   : 4
    Entry Size  : 0

    $d.realdata
    RESET
    __Vectors
        0x00000000:    20000401    ...     DCD    536871937
        0x00000004:    000000b5    ....    DCD    181
    $t
    !!!main
    __Vectors_End
    __main
        0x00000008:    f000f802    ....    BL       __scatterload ; 0x10
        0x0000000c:    f000f842    ..B.    BL       __rt_entry ; 0x94
    !!!scatter
    __scatterload
    __scatterload_rt2
    __scatterload_rt2_thumb_only
        0x00000010:    a614        ..      ADR      r6,{pc}+0x54 ; 0x64
        0x00000012:    e8960c00    ....    LDM      r6,{r10,r11}
        0x00000016:    44b2        .D      ADD      r10,r10,r6
        0x00000018:    44b3        .D      ADD      r11,r11,r6
    __scatterload_loop
        0x0000001a:    45da        .E      CMP      r10,r11
        0x0000001c:    d101        ..      BNE      0x22 ; __scatterload_loop + 8
        0x0000001e:    f000f839    ..9.    BL       __rt_entry ; 0x94
        0x00000022:    e8ba000f    ....    LDM      r10!,{r0-r3}
        0x00000026:    a60f        ..      ADR      r6,{pc}+0x3e ; 0x64
        0x00000028:    e8960030    ..0.    LDM      r6,{r4,r5}
        0x0000002c:    eba50504    ....    SUB      r5,r5,r4
        0x00000030:    eb040706    ....    ADD      r7,r4,r6
        0x00000034:    ebaa0407    ....    SUB      r4,r10,r7
        0x00000038:    f1a70701    ....    SUB      r7,r7,#1
        0x0000003c:    ea4f1515    O...    LSR      r5,r5,#4
        0x00000040:    ea4f1434    O.4.    ROR      r4,r4,#4
        0x00000044:    f1a40401    ....    SUB      r4,r4,#1
        0x00000048:    42ac        .B      CMP      r4,r5
        0x0000004a:    d301        ..      BCC      0x50 ; __scatterload_loop + 54
        0x0000004c:    f000f822    ..".    BL       __rt_entry ; 0x94
        0x00000050:    f0130f01    ....    TST      r3,#1
        0x00000054:    bf18        ..      IT       NE
        0x00000056:    1afb        ..      SUBNE    r3,r7,r3
        0x00000058:    f0430301    C...    ORR      r3,r3,#1
        0x0000005c:    f000f801    ....    BL       0x62 ; __scatterload_loop + 72
        0x00000060:    e7db        ..      B        __scatterload_loop ; 0x1a
        0x00000062:    4718        .G      BX       r3
    $d
        0x00000064:    00000174    t...    DCD    372
        0x00000068:    00000184    ....    DCD    388
    $t
    !!handler_null
    __scatterload_null
        0x0000006c:    4770        pG      BX       lr
        0x0000006e:    0000        ..      MOVS     r0,r0
    !!handler_zi
    __scatterload_zeroinit
        0x00000070:    2300        .#      MOVS     r3,#0
        0x00000072:    2400        .$      MOVS     r4,#0
        0x00000074:    2500        .%      MOVS     r5,#0
        0x00000076:    2600        .&      MOVS     r6,#0
        0x00000078:    3a10        .:      SUBS     r2,r2,#0x10
        0x0000007a:    bf28        (.      IT       CS
        0x0000007c:    c178        x.      STMCS    r1!,{r3-r6}
        0x0000007e:    d8fb        ..      BHI      0x78 ; __scatterload_zeroinit + 8
        0x00000080:    0752        R.      LSLS     r2,r2,#29
        0x00000082:    bf28        (.      IT       CS
        0x00000084:    c130        0.      STMCS    r1!,{r4,r5}
        0x00000086:    bf48        H.      IT       MI
        0x00000088:    600b        .`      STRMI    r3,[r1,#0]
        0x0000008a:    4770        pG      BX       lr
    .ARM.Collect$$libinit$$00000000
    __rt_lib_init
        0x0000008c:    b51f        ..      PUSH     {r0-r4,lr}
    .ARM.Collect$$libinit$$00000002
    .ARM.Collect$$libinit$$00000004
    .ARM.Collect$$libinit$$00000006
    .ARM.Collect$$libinit$$0000000C
    .ARM.Collect$$libinit$$0000000E
    .ARM.Collect$$libinit$$00000010
    .ARM.Collect$$libinit$$00000013
    .ARM.Collect$$libinit$$00000015
    .ARM.Collect$$libinit$$00000017
    .ARM.Collect$$libinit$$00000019
    .ARM.Collect$$libinit$$0000001B
    .ARM.Collect$$libinit$$0000001D
    .ARM.Collect$$libinit$$0000001F
    .ARM.Collect$$libinit$$00000021
    .ARM.Collect$$libinit$$00000023
    .ARM.Collect$$libinit$$00000025
    .ARM.Collect$$libinit$$00000027
    .ARM.Collect$$libinit$$0000002E
    .ARM.Collect$$libinit$$00000030
    .ARM.Collect$$libinit$$00000032
    .ARM.Collect$$libinit$$00000034
    .ARM.Collect$$libinit$$00000035
    __rt_lib_init_alloca_1
    __rt_lib_init_argv_1
    __rt_lib_init_atexit_1
    __rt_lib_init_clock_1
    __rt_lib_init_cpp_1
    __rt_lib_init_exceptions_1
    __rt_lib_init_fp_1
    __rt_lib_init_fp_trap_1
    __rt_lib_init_getenv_1
    __rt_lib_init_heap_1
    __rt_lib_init_lc_collate_1
    __rt_lib_init_lc_ctype_1
    __rt_lib_init_lc_monetary_1
    __rt_lib_init_lc_numeric_1
    __rt_lib_init_lc_time_1
    __rt_lib_init_preinit_1
    __rt_lib_init_rand_1
    __rt_lib_init_relocate_pie_1
    __rt_lib_init_return
    __rt_lib_init_signal_1
    __rt_lib_init_stdio_1
    __rt_lib_init_user_alloc_1
        0x0000008e:    bd1f        ..      POP      {r0-r4,pc}
    .ARM.Collect$$libshutdown$$00000000
    __rt_lib_shutdown
        0x00000090:    b510        ..      PUSH     {r4,lr}
    .ARM.Collect$$libshutdown$$00000002
    .ARM.Collect$$libshutdown$$00000004
    .ARM.Collect$$libshutdown$$00000007
    .ARM.Collect$$libshutdown$$0000000A
    .ARM.Collect$$libshutdown$$0000000C
    .ARM.Collect$$libshutdown$$0000000F
    .ARM.Collect$$libshutdown$$00000010
    __rt_lib_shutdown_cpp_1
    __rt_lib_shutdown_fp_trap_1
    __rt_lib_shutdown_heap_1
    __rt_lib_shutdown_return
    __rt_lib_shutdown_signal_1
    __rt_lib_shutdown_stdio_1
    __rt_lib_shutdown_user_alloc_1
        0x00000092:    bd10        ..      POP      {r4,pc}
    .ARM.Collect$$rtentry$$00000000
    .ARM.Collect$$rtentry$$00000002
    .ARM.Collect$$rtentry$$00000005
    __rt_entry
    __rt_entry_presh_1
    __rt_entry_sh
        0x00000094:    f8dfd00c    ....    LDR      sp,__lit__00000000 ; [0xa4] = 0x20000401
    .ARM.Collect$$rtentry$$00000009
    .ARM.Collect$$rtentry$$0000000A
    __rt_entry_li
    __rt_entry_postsh_1
        0x00000098:    f7fffff8    ....    BL       __rt_lib_init ; 0x8c
    .ARM.Collect$$rtentry$$0000000C
    .ARM.Collect$$rtentry$$0000000D
    __rt_entry_main
    __rt_entry_postli_1
        0x0000009c:    f000f81e    ....    BL       main ; 0xdc
        0x000000a0:    f000f80c    ....    BL       exit ; 0xbc
    $d
    .ARM.Collect$$rtentry$$00002716
    __lit__00000000
        0x000000a4:    20000401    ...     DCD    536871937
    $t
    .ARM.Collect$$rtexit$$00000000
    __rt_exit
        0x000000a8:    b403        ..      PUSH     {r0,r1}
    .ARM.Collect$$rtexit$$00000002
    .ARM.Collect$$rtexit$$00000003
    __rt_exit_ls
    __rt_exit_prels_1
        0x000000aa:    f7fffff1    ....    BL       __rt_lib_shutdown ; 0x90
    .ARM.Collect$$rtexit$$00000004
    __rt_exit_exit
        0x000000ae:    bc03        ..      POP      {r0,r1}
        0x000000b0:    f000f80e    ....    BL       __semihosting_library_function ; 0xd0
    .text
    Reset_Handler
        0x000000b4:    4800        .H      LDR      r0,[pc,#0] ; [0xb8] = 0x9
        0x000000b6:    4700        .G      BX       r0
    $d
        0x000000b8:    00000009    ....    DCD    9
    $t
    .text
    exit
        0x000000bc:    b510        ..      PUSH     {r4,lr}
        0x000000be:    4604        .F      MOV      r4,r0
        0x000000c0:    f3af8000    ....    NOP.W    
        0x000000c4:    4620         F      MOV      r0,r4
        0x000000c6:    e8bd4010    ...@    POP      {r4,lr}
        0x000000ca:    f7ffbfed    ....    B.W      __rt_exit ; 0xa8
    .text
    __I$use$semihosting
    __use_no_semihosting_swi
        0x000000ce:    4770        pG      BX       lr
    .text
    .text
    __semihosting_library_function
    _sys_exit
        0x000000d0:    4901        .I      LDR      r1,[pc,#4] ; [0xd8] = 0x20026
        0x000000d2:    2018        .       MOVS     r0,#0x18
        0x000000d4:    beab        ..      BKPT     #0xab
        0x000000d6:    e7fe        ..      B        0xd6 ; __semihosting_library_function + 6
    $d
        0x000000d8:    00020026    &...    DCD    131110
    $t.0
    main
        0x000000dc:    b084        ..      SUB      sp,sp,#0x10
        0x000000de:    2000        .       MOVS     r0,#0
        0x000000e0:    9003        ..      STR      r0,[sp,#0xc]
        0x000000e2:    f44f627f    O..b    MOV      r2,#0xff0
        0x000000e6:    2101        .!      MOVS     r1,#1
        0x000000e8:    6011        .`      STR      r1,[r2,#0]
        0x000000ea:    f2420303    B...    MOV      r3,#0x2003
        0x000000ee:    f2c40300    ....    MOVT     r3,#0x4000
        0x000000f2:    f44f4100    O..A    MOV      r1,#0x8000
        0x000000f6:    6019        .`      STR      r1,[r3,#0]
        0x000000f8:    f2420101    B...    MOV      r1,#0x2001
        0x000000fc:    f2c40100    ....    MOVT     r1,#0x4000
        0x00000100:    6008        .`      STR      r0,[r1,#0]
        0x00000102:    f2420c00    B...    MOVW     r12,#0x2000
        0x00000106:    f2c40c00    ....    MOVT     r12,#0x4000
        0x0000010a:    2207        ."      MOVS     r2,#7
        0x0000010c:    f8cc2000    ...     STR      r2,[r12,#0]
        0x00000110:    6018        .`      STR      r0,[r3,#0]
        0x00000112:    f44f5240    O.@R    MOV      r2,#0x3000
        0x00000116:    601a        .`      STR      r2,[r3,#0]
        0x00000118:    f2420302    B...    MOV      r3,#0x2002
        0x0000011c:    f2c40300    ....    MOVT     r3,#0x4000
        0x00000120:    f44f3280    O..2    MOV      r2,#0x10000
        0x00000124:    601a        .`      STR      r2,[r3,#0]
        0x00000126:    6008        .`      STR      r0,[r1,#0]
        0x00000128:    f2420105    B...    MOV      r1,#0x2005
        0x0000012c:    f2c40100    ....    MOVT     r1,#0x4000
        0x00000130:    6008        .`      STR      r0,[r1,#0]
        0x00000132:    9000        ..      STR      r0,[sp,#0]
        0x00000134:    e7ff        ..      B        0x136 ; main + 90
        0x00000136:    9800        ..      LDR      r0,[sp,#0]
        0x00000138:    280a        .(      CMP      r0,#0xa
        0x0000013a:    d80b        ..      BHI      0x154 ; main + 120
        0x0000013c:    e7ff        ..      B        0x13e ; main + 98
        0x0000013e:    9800        ..      LDR      r0,[sp,#0]
        0x00000140:    f2420100    B...    MOVW     r1,#0x2000
        0x00000144:    f2c40100    ....    MOVT     r1,#0x4000
        0x00000148:    6008        .`      STR      r0,[r1,#0]
        0x0000014a:    e7ff        ..      B        0x14c ; main + 112
        0x0000014c:    9800        ..      LDR      r0,[sp,#0]
        0x0000014e:    3001        .0      ADDS     r0,#1
        0x00000150:    9000        ..      STR      r0,[sp,#0]
        0x00000152:    e7f0        ..      B        0x136 ; main + 90
        0x00000154:    f2420100    B...    MOVW     r1,#0x2000
        0x00000158:    f2c40100    ....    MOVT     r1,#0x4000
        0x0000015c:    f04f30aa    O..0    MOV      r0,#0xaaaaaaaa
        0x00000160:    6008        .`      STR      r0,[r1,#0]
        0x00000162:    f04f3255    O.U2    MOV      r2,#0x55555555
        0x00000166:    600a        .`      STR      r2,[r1,#0]
        0x00000168:    6008        .`      STR      r0,[r1,#0]
        0x0000016a:    2000        .       MOVS     r0,#0
        0x0000016c:    9001        ..      STR      r0,[sp,#4]
        0x0000016e:    e7ff        ..      B        0x170 ; main + 148
        0x00000170:    9801        ..      LDR      r0,[sp,#4]
        0x00000172:    2863        c(      CMP      r0,#0x63
        0x00000174:    d805        ..      BHI      0x182 ; main + 166
        0x00000176:    e7ff        ..      B        0x178 ; main + 156
        0x00000178:    e7ff        ..      B        0x17a ; main + 158
        0x0000017a:    9801        ..      LDR      r0,[sp,#4]
        0x0000017c:    3001        .0      ADDS     r0,#1
        0x0000017e:    9001        ..      STR      r0,[sp,#4]
        0x00000180:    e7f6        ..      B        0x170 ; main + 148
        0x00000182:    2000        .       MOVS     r0,#0
        0x00000184:    9000        ..      STR      r0,[sp,#0]
        0x00000186:    e7ff        ..      B        0x188 ; main + 172
        0x00000188:    9800        ..      LDR      r0,[sp,#0]
        0x0000018a:    280e        .(      CMP      r0,#0xe
        0x0000018c:    d80b        ..      BHI      0x1a6 ; main + 202
        0x0000018e:    e7ff        ..      B        0x190 ; main + 180
        0x00000190:    f2420000    B...    MOVW     r0,#0x2000
        0x00000194:    f2c40000    ....    MOVT     r0,#0x4000
        0x00000198:    6800        .h      LDR      r0,[r0,#0]
        0x0000019a:    9002        ..      STR      r0,[sp,#8]
        0x0000019c:    e7ff        ..      B        0x19e ; main + 194
        0x0000019e:    9800        ..      LDR      r0,[sp,#0]
        0x000001a0:    3001        .0      ADDS     r0,#1
        0x000001a2:    9000        ..      STR      r0,[sp,#0]
        0x000001a4:    e7f0        ..      B        0x188 ; main + 172
        0x000001a6:    f2420005    B...    MOV      r0,#0x2005
        0x000001aa:    f2c40000    ....    MOVT     r0,#0x4000
        0x000001ae:    6800        .h      LDR      r0,[r0,#0]
        0x000001b0:    9002        ..      STR      r0,[sp,#8]
        0x000001b2:    f44f617f    O..a    MOV      r1,#0xff0
        0x000001b6:    2007        .       MOVS     r0,#7
        0x000001b8:    6008        .`      STR      r0,[r1,#0]
        0x000001ba:    2000        .       MOVS     r0,#0
        0x000001bc:    9001        ..      STR      r0,[sp,#4]
        0x000001be:    e7ff        ..      B        0x1c0 ; main + 228
        0x000001c0:    9801        ..      LDR      r0,[sp,#4]
        0x000001c2:    2813        .(      CMP      r0,#0x13
        0x000001c4:    d805        ..      BHI      0x1d2 ; main + 246
        0x000001c6:    e7ff        ..      B        0x1c8 ; main + 236
        0x000001c8:    e7ff        ..      B        0x1ca ; main + 238
        0x000001ca:    9801        ..      LDR      r0,[sp,#4]
        0x000001cc:    3001        .0      ADDS     r0,#1
        0x000001ce:    9001        ..      STR      r0,[sp,#4]
        0x000001d0:    e7f6        ..      B        0x1c0 ; main + 228
        0x000001d2:    e7ff        ..      B        0x1d4 ; main + 248
        0x000001d4:    e7fe        ..      B        0x1d4 ; main + 248
        0x000001d6:    0000        ..      MOVS     r0,r0
    $d.realdata
    Region$$Table$$Base
        0x000001d8:    000001e8    ....    DCD    488
        0x000001dc:    20000000    ...     DCD    536870912
        0x000001e0:    00000404    ....    DCD    1028
        0x000001e4:    00000070    p...    DCD    112
    Region$$Table$$Limit

====================================

** Section #2

    Name        : ER_ZI
    Type        : SHT_NOBITS (0x00000008)
    Flags       : SHF_ALLOC + SHF_WRITE (0x00000003)
    Addr        : 0x20000000
    File Offset : 544 (0x220)
    Size        : 1028 bytes (0x404)
    Link        : SHN_UNDEF
    Info        : 0
    Alignment   : 8
    Entry Size  : 0


====================================

** Section #3

    Name        : .debug_abbrev
    Type        : SHT_PROGBITS (0x00000001)
    Flags       : None (0x00000000)
    Addr        : 0x00000000
    File Offset : 544 (0x220)
    Size        : 126 bytes (0x7e)
    Link        : SHN_UNDEF
    Info        : 0
    Alignment   : 1
    Entry Size  : 0


====================================

** Section #4

    Name        : .debug_frame
    Type        : SHT_PROGBITS (0x00000001)
    Flags       : None (0x00000000)
    Addr        : 0x00000000
    File Offset : 670 (0x29e)
    Size        : 440 bytes (0x1b8)
    Link        : SHN_UNDEF
    Info        : 0
    Alignment   : 1
    Entry Size  : 0


====================================

** Section #5

    Name        : .debug_info
    Type        : SHT_PROGBITS (0x00000001)
    Flags       : None (0x00000000)
    Addr        : 0x00000000
    File Offset : 1110 (0x456)
    Size        : 343 bytes (0x157)
    Link        : SHN_UNDEF
    Info        : 0
    Alignment   : 1
    Entry Size  : 0


====================================

** Section #6

    Name        : .debug_line
    Type        : SHT_PROGBITS (0x00000001)
    Flags       : None (0x00000000)
    Addr        : 0x00000000
    File Offset : 1453 (0x5ad)
    Size        : 272 bytes (0x110)
    Link        : SHN_UNDEF
    Info        : 0
    Alignment   : 1
    Entry Size  : 0


====================================

** Section #7

    Name        : .debug_str
    Type        : SHT_PROGBITS (0x00000001)
    Flags       : None (0x00000000)
    Addr        : 0x00000000
    File Offset : 1725 (0x6bd)
    Size        : 201 bytes (0xc9)
    Link        : SHN_UNDEF
    Info        : 0
    Alignment   : 1
    Entry Size  : 0


====================================

** Section #8

    Name        : .symtab
    Type        : SHT_SYMTAB (0x00000002)
    Flags       : None (0x00000000)
    Addr        : 0x00000000
    File Offset : 1928 (0x788)
    Size        : 3040 bytes (0xbe0)
    Link        : Section 9 (.strtab)
    Info        : Last local symbol no = 123
    Alignment   : 4
    Entry Size  : 16


====================================

** Section #9

    Name        : .strtab
    Type        : SHT_STRTAB (0x00000003)
    Flags       : None (0x00000000)
    Addr        : 0x00000000
    File Offset : 4968 (0x1368)
    Size        : 3320 bytes (0xcf8)
    Link        : SHN_UNDEF
    Info        : 0
    Alignment   : 1
    Entry Size  : 0


====================================

** Section #10

    Name        : .note
    Type        : SHT_NOTE (0x00000007)
    Flags       : None (0x00000000)
    Addr        : 0x00000000
    File Offset : 8288 (0x2060)
    Size        : 24 bytes (0x18)
    Link        : SHN_UNDEF
    Info        : 0
    Alignment   : 4
    Entry Size  : 0

        Section     Segment
    ====================================

              1           0
              2           0

====================================

** Section #11

    Name        : .comment
    Type        : SHT_PROGBITS (0x00000001)
    Flags       : None (0x00000000)
    Addr        : 0x00000000
    File Offset : 8312 (0x2078)
    Size        : 1212 bytes (0x4bc)
    Link        : SHN_UNDEF
    Info        : 0
    Alignment   : 1
    Entry Size  : 0

    Component: Arm Compiler for Embedded 6.21 Tool: armlink [5ec1fa00]
    ArmLink --strict --callgraph --load_addr_map_info --map --symbols --xref --diag_suppress=9931 --ro_base=0x0 --rw_base=0x20000000 --cpu=Cortex-M4 --fpu=SoftVFP --first=__Vectors --list=.\Listings\first.map --output=.\Objects\first.axf --entry=Reset_Handler --info=summarysizes,sizes,totals,unused,veneers

    C:\Keil_v5\ARM\ARMCLANG\Bin\..\lib\armlib\c_w.l
    C:\Keil_v5\ARM\ARMCLANG\Bin\..\lib\armlib\fz_ws.l
    C:\Keil_v5\ARM\ARMCLANG\Bin\..\lib\armlib\h_w.l
    C:\Keil_v5\ARM\ARMCLANG\Bin\..\lib\libcxx\libcpp-experimental_w.l
    C:\Keil_v5\ARM\ARMCLANG\Bin\..\lib\libcxx\libcpp_w.l
    C:\Keil_v5\ARM\ARMCLANG\Bin\..\lib\libcxx\libcppabi_w.l
    C:\Keil_v5\ARM\ARMCLANG\Bin\..\lib\armlib\m_ws.l
    C:\Keil_v5\ARM\ARMCLANG\Bin\..\lib\armlib\vfpsupport.l
    Input Comments:
    
    startup.o
    
    Component: Arm Compiler for Embedded 6.21 Tool: armasm [5ec1f200]
    armasm --debug --diag_suppress=9931,A1950W --cpu=Cortex-M4 --fpu=None --apcs=/softfp  -IC:/Users/ADMIN/AppData/Local/Arm/Packs/ARM/CMSIS/5.9.0/Device/ARM/ARMCM4/Include --predefine="__EVAL SETA 1" --predefine="__UVISION_VERSION SETA 539" --p
    first.o
    
    
    Component: Arm Compiler for Embedded 6.21 Tool: armclang [5ec1fd00]
    

====================================

** Section #12

    Name        : .shstrtab
    Type        : SHT_STRTAB (0x00000003)
    Flags       : None (0x00000000)
    Addr        : 0x00000000
    File Offset : 9524 (0x2534)
    Size        : 124 bytes (0x7c)
    Link        : SHN_UNDEF
    Info        : 0
    Alignment   : 1
    Entry Size  : 0


====================================

