
========================================================================

** ELF Header Information

    File Name: .\Objects\first.axf

    Machine class: ELFCLASS32 (32-bit)
    Data encoding: ELFDATA2LSB (Little endian)
    Header version: EV_CURRENT (Current version)
    Operating System ABI: none
    ABI Version: 0
    File Type: ET_EXEC (Executable) (2)
    Machine: EM_ARM (ARM)

    Image Entry point: 0x000000b5
    Flags: EF_ARM_HASENTRY + EF_ARM_ABI_FLOAT_SOFT (0x05000202)

    ARM ELF revision: 5 (ABI version 2)

    Conforms to Soft float procedure-call standard

    Built with
    Component: Arm Compiler for Embedded 6.21 Tool: armasm [5ec1f200]
    Component: Arm Compiler for Embedded 6.21 Tool: armlink [5ec1fa00]

    Header size: 52 bytes (0x34)
    Program header entry size: 32 bytes (0x20)
    Section header entry size: 40 bytes (0x28)

    Program header entries: 1
    Section header entries: 13

    Program header offset: 12092 (0x00002f3c)
    Section header offset: 12124 (0x00002f5c)

    Section header string table index: 12

========================================================================

** Program header #0

    Type          : PT_LOAD (1)
    File Offset   : 56 (0x38)
    Virtual Addr  : 0x00000000
    Physical Addr : 0x00000000
    Size in file  : 1908 bytes (0x774)
    Size in memory: 2940 bytes (0xb7c)
    Flags         : PF_X + PF_W + PF_R + PF_ARM_ENTRY (0x80000007)
    Alignment     : 8


========================================================================

** Section #1

    Name        : ER_RO
    Type        : SHT_PROGBITS (0x00000001)
    Flags       : SHF_ALLOC + SHF_EXECINSTR (0x00000006)
    Addr        : 0x00000000
    File Offset : 56 (0x38)
    Size        : 1908 bytes (0x774)
    Link        : SHN_UNDEF
    Info        : 0
    Alignment   : 4
    Entry Size  : 0

    $d.realdata
    RESET
    __Vectors
        0x00000000:    20000401    ...     DCD    536871937
        0x00000004:    000000b5    ....    DCD    181
    $t
    !!!main
    __Vectors_End
    __main
        0x00000008:    f000f802    ....    BL       __scatterload ; 0x10
        0x0000000c:    f000f842    ..B.    BL       __rt_entry ; 0x94
    !!!scatter
    __scatterload
    __scatterload_rt2
    __scatterload_rt2_thumb_only
        0x00000010:    a614        ..      ADR      r6,{pc}+0x54 ; 0x64
        0x00000012:    e8960c00    ....    LDM      r6,{r10,r11}
        0x00000016:    44b2        .D      ADD      r10,r10,r6
        0x00000018:    44b3        .D      ADD      r11,r11,r6
    __scatterload_loop
        0x0000001a:    45da        .E      CMP      r10,r11
        0x0000001c:    d101        ..      BNE      0x22 ; __scatterload_loop + 8
        0x0000001e:    f000f839    ..9.    BL       __rt_entry ; 0x94
        0x00000022:    e8ba000f    ....    LDM      r10!,{r0-r3}
        0x00000026:    a60f        ..      ADR      r6,{pc}+0x3e ; 0x64
        0x00000028:    e8960030    ..0.    LDM      r6,{r4,r5}
        0x0000002c:    eba50504    ....    SUB      r5,r5,r4
        0x00000030:    eb040706    ....    ADD      r7,r4,r6
        0x00000034:    ebaa0407    ....    SUB      r4,r10,r7
        0x00000038:    f1a70701    ....    SUB      r7,r7,#1
        0x0000003c:    ea4f1515    O...    LSR      r5,r5,#4
        0x00000040:    ea4f1434    O.4.    ROR      r4,r4,#4
        0x00000044:    f1a40401    ....    SUB      r4,r4,#1
        0x00000048:    42ac        .B      CMP      r4,r5
        0x0000004a:    d301        ..      BCC      0x50 ; __scatterload_loop + 54
        0x0000004c:    f000f822    ..".    BL       __rt_entry ; 0x94
        0x00000050:    f0130f01    ....    TST      r3,#1
        0x00000054:    bf18        ..      IT       NE
        0x00000056:    1afb        ..      SUBNE    r3,r7,r3
        0x00000058:    f0430301    C...    ORR      r3,r3,#1
        0x0000005c:    f000f801    ....    BL       0x62 ; __scatterload_loop + 72
        0x00000060:    e7db        ..      B        __scatterload_loop ; 0x1a
        0x00000062:    4718        .G      BX       r3
    $d
        0x00000064:    00000700    ....    DCD    1792
        0x00000068:    00000710    ....    DCD    1808
    $t
    !!handler_null
    __scatterload_null
        0x0000006c:    4770        pG      BX       lr
        0x0000006e:    0000        ..      MOVS     r0,r0
    !!handler_zi
    __scatterload_zeroinit
        0x00000070:    2300        .#      MOVS     r3,#0
        0x00000072:    2400        .$      MOVS     r4,#0
        0x00000074:    2500        .%      MOVS     r5,#0
        0x00000076:    2600        .&      MOVS     r6,#0
        0x00000078:    3a10        .:      SUBS     r2,r2,#0x10
        0x0000007a:    bf28        (.      IT       CS
        0x0000007c:    c178        x.      STMCS    r1!,{r3-r6}
        0x0000007e:    d8fb        ..      BHI      0x78 ; __scatterload_zeroinit + 8
        0x00000080:    0752        R.      LSLS     r2,r2,#29
        0x00000082:    bf28        (.      IT       CS
        0x00000084:    c130        0.      STMCS    r1!,{r4,r5}
        0x00000086:    bf48        H.      IT       MI
        0x00000088:    600b        .`      STRMI    r3,[r1,#0]
        0x0000008a:    4770        pG      BX       lr
    .ARM.Collect$$libinit$$00000000
    __rt_lib_init
        0x0000008c:    b51f        ..      PUSH     {r0-r4,lr}
    .ARM.Collect$$libinit$$00000002
    .ARM.Collect$$libinit$$00000004
    .ARM.Collect$$libinit$$00000006
    .ARM.Collect$$libinit$$0000000C
    .ARM.Collect$$libinit$$0000000E
    .ARM.Collect$$libinit$$00000010
    .ARM.Collect$$libinit$$00000013
    .ARM.Collect$$libinit$$00000015
    .ARM.Collect$$libinit$$00000017
    .ARM.Collect$$libinit$$00000019
    .ARM.Collect$$libinit$$0000001B
    .ARM.Collect$$libinit$$0000001D
    .ARM.Collect$$libinit$$0000001F
    .ARM.Collect$$libinit$$00000021
    .ARM.Collect$$libinit$$00000023
    .ARM.Collect$$libinit$$00000025
    .ARM.Collect$$libinit$$00000027
    .ARM.Collect$$libinit$$0000002E
    .ARM.Collect$$libinit$$00000030
    .ARM.Collect$$libinit$$00000032
    .ARM.Collect$$libinit$$00000034
    .ARM.Collect$$libinit$$00000035
    __rt_lib_init_alloca_1
    __rt_lib_init_argv_1
    __rt_lib_init_atexit_1
    __rt_lib_init_clock_1
    __rt_lib_init_cpp_1
    __rt_lib_init_exceptions_1
    __rt_lib_init_fp_1
    __rt_lib_init_fp_trap_1
    __rt_lib_init_getenv_1
    __rt_lib_init_heap_1
    __rt_lib_init_lc_collate_1
    __rt_lib_init_lc_ctype_1
    __rt_lib_init_lc_monetary_1
    __rt_lib_init_lc_numeric_1
    __rt_lib_init_lc_time_1
    __rt_lib_init_preinit_1
    __rt_lib_init_rand_1
    __rt_lib_init_relocate_pie_1
    __rt_lib_init_return
    __rt_lib_init_signal_1
    __rt_lib_init_stdio_1
    __rt_lib_init_user_alloc_1
        0x0000008e:    bd1f        ..      POP      {r0-r4,pc}
    .ARM.Collect$$libshutdown$$00000000
    __rt_lib_shutdown
        0x00000090:    b510        ..      PUSH     {r4,lr}
    .ARM.Collect$$libshutdown$$00000002
    .ARM.Collect$$libshutdown$$00000004
    .ARM.Collect$$libshutdown$$00000007
    .ARM.Collect$$libshutdown$$0000000A
    .ARM.Collect$$libshutdown$$0000000C
    .ARM.Collect$$libshutdown$$0000000F
    .ARM.Collect$$libshutdown$$00000010
    __rt_lib_shutdown_cpp_1
    __rt_lib_shutdown_fp_trap_1
    __rt_lib_shutdown_heap_1
    __rt_lib_shutdown_return
    __rt_lib_shutdown_signal_1
    __rt_lib_shutdown_stdio_1
    __rt_lib_shutdown_user_alloc_1
        0x00000092:    bd10        ..      POP      {r4,pc}
    .ARM.Collect$$rtentry$$00000000
    .ARM.Collect$$rtentry$$00000002
    .ARM.Collect$$rtentry$$00000005
    __rt_entry
    __rt_entry_presh_1
    __rt_entry_sh
        0x00000094:    f8dfd00c    ....    LDR      sp,__lit__00000000 ; [0xa4] = 0x20000401
    .ARM.Collect$$rtentry$$00000009
    .ARM.Collect$$rtentry$$0000000A
    __rt_entry_li
    __rt_entry_postsh_1
        0x00000098:    f7fffff8    ....    BL       __rt_lib_init ; 0x8c
    .ARM.Collect$$rtentry$$0000000C
    .ARM.Collect$$rtentry$$0000000D
    __rt_entry_main
    __rt_entry_postli_1
        0x0000009c:    f000f81e    ....    BL       main ; 0xdc
        0x000000a0:    f000f80c    ....    BL       exit ; 0xbc
    $d
    .ARM.Collect$$rtentry$$00002716
    __lit__00000000
        0x000000a4:    20000401    ...     DCD    536871937
    $t
    .ARM.Collect$$rtexit$$00000000
    __rt_exit
        0x000000a8:    b403        ..      PUSH     {r0,r1}
    .ARM.Collect$$rtexit$$00000002
    .ARM.Collect$$rtexit$$00000003
    __rt_exit_ls
    __rt_exit_prels_1
        0x000000aa:    f7fffff1    ....    BL       __rt_lib_shutdown ; 0x90
    .ARM.Collect$$rtexit$$00000004
    __rt_exit_exit
        0x000000ae:    bc03        ..      POP      {r0,r1}
        0x000000b0:    f000f80e    ....    BL       __semihosting_library_function ; 0xd0
    .text
    Reset_Handler
        0x000000b4:    4800        .H      LDR      r0,[pc,#0] ; [0xb8] = 0x9
        0x000000b6:    4700        .G      BX       r0
    $d
        0x000000b8:    00000009    ....    DCD    9
    $t
    .text
    exit
        0x000000bc:    b510        ..      PUSH     {r4,lr}
        0x000000be:    4604        .F      MOV      r4,r0
        0x000000c0:    f3af8000    ....    NOP.W    
        0x000000c4:    4620         F      MOV      r0,r4
        0x000000c6:    e8bd4010    ...@    POP      {r4,lr}
        0x000000ca:    f7ffbfed    ....    B.W      __rt_exit ; 0xa8
    .text
    __I$use$semihosting
    __use_no_semihosting_swi
        0x000000ce:    4770        pG      BX       lr
    .text
    .text
    __semihosting_library_function
    _sys_exit
        0x000000d0:    4901        .I      LDR      r1,[pc,#4] ; [0xd8] = 0x20026
        0x000000d2:    2018        .       MOVS     r0,#0x18
        0x000000d4:    beab        ..      BKPT     #0xab
        0x000000d6:    e7fe        ..      B        0xd6 ; __semihosting_library_function + 6
    $d
        0x000000d8:    00020026    &...    DCD    131110
    $t.0
    main
        0x000000dc:    b084        ..      SUB      sp,sp,#0x10
        0x000000de:    2000        .       MOVS     r0,#0
        0x000000e0:    9003        ..      STR      r0,[sp,#0xc]
        0x000000e2:    f44f627f    O..b    MOV      r2,#0xff0
        0x000000e6:    2101        .!      MOVS     r1,#1
        0x000000e8:    6011        .`      STR      r1,[r2,#0]
        0x000000ea:    f2420203    B...    MOV      r2,#0x2003
        0x000000ee:    f2c40200    ....    MOVT     r2,#0x4000
        0x000000f2:    f44f4100    O..A    MOV      r1,#0x8000
        0x000000f6:    6011        .`      STR      r1,[r2,#0]
        0x000000f8:    f2420301    B...    MOV      r3,#0x2001
        0x000000fc:    f2c40300    ....    MOVT     r3,#0x4000
        0x00000100:    f04f417f    O..A    MOV      r1,#0xff000000
        0x00000104:    6019        .`      STR      r1,[r3,#0]
        0x00000106:    f2420c00    B...    MOVW     r12,#0x2000
        0x0000010a:    f2c40c00    ....    MOVT     r12,#0x4000
        0x0000010e:    21ff        .!      MOVS     r1,#0xff
        0x00000110:    f8cc1000    ....    STR      r1,[r12,#0]
        0x00000114:    6010        .`      STR      r0,[r2,#0]
        0x00000116:    f44f7140    O.@q    MOV      r1,#0x300
        0x0000011a:    6011        .`      STR      r1,[r2,#0]
        0x0000011c:    f2420202    B...    MOV      r2,#0x2002
        0x00000120:    f2c40200    ....    MOVT     r2,#0x4000
        0x00000124:    f44f3180    O..1    MOV      r1,#0x10000
        0x00000128:    6011        .`      STR      r1,[r2,#0]
        0x0000012a:    6018        .`      STR      r0,[r3,#0]
        0x0000012c:    6011        .`      STR      r1,[r2,#0]
        0x0000012e:    f2420105    B...    MOV      r1,#0x2005
        0x00000132:    f2c40100    ....    MOVT     r1,#0x4000
        0x00000136:    6008        .`      STR      r0,[r1,#0]
        0x00000138:    9000        ..      STR      r0,[sp,#0]
        0x0000013a:    e7ff        ..      B        0x13c ; main + 96
        0x0000013c:    9800        ..      LDR      r0,[sp,#0]
        0x0000013e:    2804        .(      CMP      r0,#4
        0x00000140:    d80c        ..      BHI      0x15c ; main + 128
        0x00000142:    e7ff        ..      B        0x144 ; main + 104
        0x00000144:    9800        ..      LDR      r0,[sp,#0]
        0x00000146:    3001        .0      ADDS     r0,#1
        0x00000148:    f2420100    B...    MOVW     r1,#0x2000
        0x0000014c:    f2c40100    ....    MOVT     r1,#0x4000
        0x00000150:    6008        .`      STR      r0,[r1,#0]
        0x00000152:    e7ff        ..      B        0x154 ; main + 120
        0x00000154:    9800        ..      LDR      r0,[sp,#0]
        0x00000156:    3001        .0      ADDS     r0,#1
        0x00000158:    9000        ..      STR      r0,[sp,#0]
        0x0000015a:    e7ef        ..      B        0x13c ; main + 96
        0x0000015c:    2000        .       MOVS     r0,#0
        0x0000015e:    9001        ..      STR      r0,[sp,#4]
        0x00000160:    e7ff        ..      B        0x162 ; main + 134
        0x00000162:    9801        ..      LDR      r0,[sp,#4]
        0x00000164:    2863        c(      CMP      r0,#0x63
        0x00000166:    d805        ..      BHI      0x174 ; main + 152
        0x00000168:    e7ff        ..      B        0x16a ; main + 142
        0x0000016a:    e7ff        ..      B        0x16c ; main + 144
        0x0000016c:    9801        ..      LDR      r0,[sp,#4]
        0x0000016e:    3001        .0      ADDS     r0,#1
        0x00000170:    9001        ..      STR      r0,[sp,#4]
        0x00000172:    e7f6        ..      B        0x162 ; main + 134
        0x00000174:    2000        .       MOVS     r0,#0
        0x00000176:    9000        ..      STR      r0,[sp,#0]
        0x00000178:    e7ff        ..      B        0x17a ; main + 158
        0x0000017a:    9800        ..      LDR      r0,[sp,#0]
        0x0000017c:    2804        .(      CMP      r0,#4
        0x0000017e:    d80b        ..      BHI      0x198 ; main + 188
        0x00000180:    e7ff        ..      B        0x182 ; main + 166
        0x00000182:    f2420000    B...    MOVW     r0,#0x2000
        0x00000186:    f2c40000    ....    MOVT     r0,#0x4000
        0x0000018a:    6800        .h      LDR      r0,[r0,#0]
        0x0000018c:    9002        ..      STR      r0,[sp,#8]
        0x0000018e:    e7ff        ..      B        0x190 ; main + 180
        0x00000190:    9800        ..      LDR      r0,[sp,#0]
        0x00000192:    3001        .0      ADDS     r0,#1
        0x00000194:    9000        ..      STR      r0,[sp,#0]
        0x00000196:    e7f0        ..      B        0x17a ; main + 158
        0x00000198:    2000        .       MOVS     r0,#0
        0x0000019a:    9001        ..      STR      r0,[sp,#4]
        0x0000019c:    e7ff        ..      B        0x19e ; main + 194
        0x0000019e:    9801        ..      LDR      r0,[sp,#4]
        0x000001a0:    2813        .(      CMP      r0,#0x13
        0x000001a2:    d805        ..      BHI      0x1b0 ; main + 212
        0x000001a4:    e7ff        ..      B        0x1a6 ; main + 202
        0x000001a6:    e7ff        ..      B        0x1a8 ; main + 204
        0x000001a8:    9801        ..      LDR      r0,[sp,#4]
        0x000001aa:    3001        .0      ADDS     r0,#1
        0x000001ac:    9001        ..      STR      r0,[sp,#4]
        0x000001ae:    e7f6        ..      B        0x19e ; main + 194
        0x000001b0:    f2420303    B...    MOV      r3,#0x2003
        0x000001b4:    f2c40300    ....    MOVT     r3,#0x4000
        0x000001b8:    f44f4001    O..@    MOV      r0,#0x8100
        0x000001bc:    6018        .`      STR      r0,[r3,#0]
        0x000001be:    f2420101    B...    MOV      r1,#0x2001
        0x000001c2:    f2c40100    ....    MOVT     r1,#0x4000
        0x000001c6:    2000        .       MOVS     r0,#0
        0x000001c8:    6008        .`      STR      r0,[r1,#0]
        0x000001ca:    f2420200    B...    MOVW     r2,#0x2000
        0x000001ce:    f2c40200    ....    MOVT     r2,#0x4000
        0x000001d2:    6010        .`      STR      r0,[r2,#0]
        0x000001d4:    6018        .`      STR      r0,[r3,#0]
        0x000001d6:    f44f7240    O.@r    MOV      r2,#0x300
        0x000001da:    601a        .`      STR      r2,[r3,#0]
        0x000001dc:    6008        .`      STR      r0,[r1,#0]
        0x000001de:    f2420202    B...    MOV      r2,#0x2002
        0x000001e2:    f2c40200    ....    MOVT     r2,#0x4000
        0x000001e6:    f44f0182    O...    MOV      r1,#0x410000
        0x000001ea:    6011        .`      STR      r1,[r2,#0]
        0x000001ec:    f2420105    B...    MOV      r1,#0x2005
        0x000001f0:    f2c40100    ....    MOVT     r1,#0x4000
        0x000001f4:    6008        .`      STR      r0,[r1,#0]
        0x000001f6:    9000        ..      STR      r0,[sp,#0]
        0x000001f8:    e7ff        ..      B        0x1fa ; main + 286
        0x000001fa:    9800        ..      LDR      r0,[sp,#0]
        0x000001fc:    2804        .(      CMP      r0,#4
        0x000001fe:    d80c        ..      BHI      0x21a ; main + 318
        0x00000200:    e7ff        ..      B        0x202 ; main + 294
        0x00000202:    9800        ..      LDR      r0,[sp,#0]
        0x00000204:    3001        .0      ADDS     r0,#1
        0x00000206:    f2420100    B...    MOVW     r1,#0x2000
        0x0000020a:    f2c40100    ....    MOVT     r1,#0x4000
        0x0000020e:    6008        .`      STR      r0,[r1,#0]
        0x00000210:    e7ff        ..      B        0x212 ; main + 310
        0x00000212:    9800        ..      LDR      r0,[sp,#0]
        0x00000214:    3001        .0      ADDS     r0,#1
        0x00000216:    9000        ..      STR      r0,[sp,#0]
        0x00000218:    e7ef        ..      B        0x1fa ; main + 286
        0x0000021a:    2000        .       MOVS     r0,#0
        0x0000021c:    9001        ..      STR      r0,[sp,#4]
        0x0000021e:    e7ff        ..      B        0x220 ; main + 324
        0x00000220:    9801        ..      LDR      r0,[sp,#4]
        0x00000222:    2863        c(      CMP      r0,#0x63
        0x00000224:    d805        ..      BHI      0x232 ; main + 342
        0x00000226:    e7ff        ..      B        0x228 ; main + 332
        0x00000228:    e7ff        ..      B        0x22a ; main + 334
        0x0000022a:    9801        ..      LDR      r0,[sp,#4]
        0x0000022c:    3001        .0      ADDS     r0,#1
        0x0000022e:    9001        ..      STR      r0,[sp,#4]
        0x00000230:    e7f6        ..      B        0x220 ; main + 324
        0x00000232:    2000        .       MOVS     r0,#0
        0x00000234:    9000        ..      STR      r0,[sp,#0]
        0x00000236:    e7ff        ..      B        0x238 ; main + 348
        0x00000238:    9800        ..      LDR      r0,[sp,#0]
        0x0000023a:    2804        .(      CMP      r0,#4
        0x0000023c:    d80b        ..      BHI      0x256 ; main + 378
        0x0000023e:    e7ff        ..      B        0x240 ; main + 356
        0x00000240:    f2420000    B...    MOVW     r0,#0x2000
        0x00000244:    f2c40000    ....    MOVT     r0,#0x4000
        0x00000248:    6800        .h      LDR      r0,[r0,#0]
        0x0000024a:    9002        ..      STR      r0,[sp,#8]
        0x0000024c:    e7ff        ..      B        0x24e ; main + 370
        0x0000024e:    9800        ..      LDR      r0,[sp,#0]
        0x00000250:    3001        .0      ADDS     r0,#1
        0x00000252:    9000        ..      STR      r0,[sp,#0]
        0x00000254:    e7f0        ..      B        0x238 ; main + 348
        0x00000256:    2000        .       MOVS     r0,#0
        0x00000258:    9001        ..      STR      r0,[sp,#4]
        0x0000025a:    e7ff        ..      B        0x25c ; main + 384
        0x0000025c:    9801        ..      LDR      r0,[sp,#4]
        0x0000025e:    2813        .(      CMP      r0,#0x13
        0x00000260:    d805        ..      BHI      0x26e ; main + 402
        0x00000262:    e7ff        ..      B        0x264 ; main + 392
        0x00000264:    e7ff        ..      B        0x266 ; main + 394
        0x00000266:    9801        ..      LDR      r0,[sp,#4]
        0x00000268:    3001        .0      ADDS     r0,#1
        0x0000026a:    9001        ..      STR      r0,[sp,#4]
        0x0000026c:    e7f6        ..      B        0x25c ; main + 384
        0x0000026e:    f2420303    B...    MOV      r3,#0x2003
        0x00000272:    f2c40300    ....    MOVT     r3,#0x4000
        0x00000276:    f44f4002    O..@    MOV      r0,#0x8200
        0x0000027a:    6018        .`      STR      r0,[r3,#0]
        0x0000027c:    f2420101    B...    MOV      r1,#0x2001
        0x00000280:    f2c40100    ....    MOVT     r1,#0x4000
        0x00000284:    f04f40aa    O..@    MOV      r0,#0x55000000
        0x00000288:    6008        .`      STR      r0,[r1,#0]
        0x0000028a:    f2420200    B...    MOVW     r2,#0x2000
        0x0000028e:    f2c40200    ....    MOVT     r2,#0x4000
        0x00000292:    2055        U       MOVS     r0,#0x55
        0x00000294:    6010        .`      STR      r0,[r2,#0]
        0x00000296:    2000        .       MOVS     r0,#0
        0x00000298:    6018        .`      STR      r0,[r3,#0]
        0x0000029a:    f44f7240    O.@r    MOV      r2,#0x300
        0x0000029e:    601a        .`      STR      r2,[r3,#0]
        0x000002a0:    6008        .`      STR      r0,[r1,#0]
        0x000002a2:    f2420202    B...    MOV      r2,#0x2002
        0x000002a6:    f2c40200    ....    MOVT     r2,#0x4000
        0x000002aa:    f44f0101    O...    MOV      r1,#0x810000
        0x000002ae:    6011        .`      STR      r1,[r2,#0]
        0x000002b0:    f2420105    B...    MOV      r1,#0x2005
        0x000002b4:    f2c40100    ....    MOVT     r1,#0x4000
        0x000002b8:    6008        .`      STR      r0,[r1,#0]
        0x000002ba:    9000        ..      STR      r0,[sp,#0]
        0x000002bc:    e7ff        ..      B        0x2be ; main + 482
        0x000002be:    9800        ..      LDR      r0,[sp,#0]
        0x000002c0:    2804        .(      CMP      r0,#4
        0x000002c2:    d80c        ..      BHI      0x2de ; main + 514
        0x000002c4:    e7ff        ..      B        0x2c6 ; main + 490
        0x000002c6:    9800        ..      LDR      r0,[sp,#0]
        0x000002c8:    3001        .0      ADDS     r0,#1
        0x000002ca:    f2420100    B...    MOVW     r1,#0x2000
        0x000002ce:    f2c40100    ....    MOVT     r1,#0x4000
        0x000002d2:    6008        .`      STR      r0,[r1,#0]
        0x000002d4:    e7ff        ..      B        0x2d6 ; main + 506
        0x000002d6:    9800        ..      LDR      r0,[sp,#0]
        0x000002d8:    3001        .0      ADDS     r0,#1
        0x000002da:    9000        ..      STR      r0,[sp,#0]
        0x000002dc:    e7ef        ..      B        0x2be ; main + 482
        0x000002de:    2000        .       MOVS     r0,#0
        0x000002e0:    9001        ..      STR      r0,[sp,#4]
        0x000002e2:    e7ff        ..      B        0x2e4 ; main + 520
        0x000002e4:    9801        ..      LDR      r0,[sp,#4]
        0x000002e6:    2863        c(      CMP      r0,#0x63
        0x000002e8:    d805        ..      BHI      0x2f6 ; main + 538
        0x000002ea:    e7ff        ..      B        0x2ec ; main + 528
        0x000002ec:    e7ff        ..      B        0x2ee ; main + 530
        0x000002ee:    9801        ..      LDR      r0,[sp,#4]
        0x000002f0:    3001        .0      ADDS     r0,#1
        0x000002f2:    9001        ..      STR      r0,[sp,#4]
        0x000002f4:    e7f6        ..      B        0x2e4 ; main + 520
        0x000002f6:    2000        .       MOVS     r0,#0
        0x000002f8:    9000        ..      STR      r0,[sp,#0]
        0x000002fa:    e7ff        ..      B        0x2fc ; main + 544
        0x000002fc:    9800        ..      LDR      r0,[sp,#0]
        0x000002fe:    2804        .(      CMP      r0,#4
        0x00000300:    d80b        ..      BHI      0x31a ; main + 574
        0x00000302:    e7ff        ..      B        0x304 ; main + 552
        0x00000304:    f2420000    B...    MOVW     r0,#0x2000
        0x00000308:    f2c40000    ....    MOVT     r0,#0x4000
        0x0000030c:    6800        .h      LDR      r0,[r0,#0]
        0x0000030e:    9002        ..      STR      r0,[sp,#8]
        0x00000310:    e7ff        ..      B        0x312 ; main + 566
        0x00000312:    9800        ..      LDR      r0,[sp,#0]
        0x00000314:    3001        .0      ADDS     r0,#1
        0x00000316:    9000        ..      STR      r0,[sp,#0]
        0x00000318:    e7f0        ..      B        0x2fc ; main + 544
        0x0000031a:    2000        .       MOVS     r0,#0
        0x0000031c:    9001        ..      STR      r0,[sp,#4]
        0x0000031e:    e7ff        ..      B        0x320 ; main + 580
        0x00000320:    9801        ..      LDR      r0,[sp,#4]
        0x00000322:    2813        .(      CMP      r0,#0x13
        0x00000324:    d805        ..      BHI      0x332 ; main + 598
        0x00000326:    e7ff        ..      B        0x328 ; main + 588
        0x00000328:    e7ff        ..      B        0x32a ; main + 590
        0x0000032a:    9801        ..      LDR      r0,[sp,#4]
        0x0000032c:    3001        .0      ADDS     r0,#1
        0x0000032e:    9001        ..      STR      r0,[sp,#4]
        0x00000330:    e7f6        ..      B        0x320 ; main + 580
        0x00000332:    f2420303    B...    MOV      r3,#0x2003
        0x00000336:    f2c40300    ....    MOVT     r3,#0x4000
        0x0000033a:    f44f4003    O..@    MOV      r0,#0x8300
        0x0000033e:    6018        .`      STR      r0,[r3,#0]
        0x00000340:    f2420101    B...    MOV      r1,#0x2001
        0x00000344:    f2c40100    ....    MOVT     r1,#0x4000
        0x00000348:    f04f402a    O.*@    MOV      r0,#0xaa000000
        0x0000034c:    6008        .`      STR      r0,[r1,#0]
        0x0000034e:    f2420200    B...    MOVW     r2,#0x2000
        0x00000352:    f2c40200    ....    MOVT     r2,#0x4000
        0x00000356:    20aa        .       MOVS     r0,#0xaa
        0x00000358:    6010        .`      STR      r0,[r2,#0]
        0x0000035a:    2000        .       MOVS     r0,#0
        0x0000035c:    6018        .`      STR      r0,[r3,#0]
        0x0000035e:    f44f7240    O.@r    MOV      r2,#0x300
        0x00000362:    601a        .`      STR      r2,[r3,#0]
        0x00000364:    6008        .`      STR      r0,[r1,#0]
        0x00000366:    f2420202    B...    MOV      r2,#0x2002
        0x0000036a:    f2c40200    ....    MOVT     r2,#0x4000
        0x0000036e:    f44f0141    O.A.    MOV      r1,#0xc10000
        0x00000372:    6011        .`      STR      r1,[r2,#0]
        0x00000374:    f2420105    B...    MOV      r1,#0x2005
        0x00000378:    f2c40100    ....    MOVT     r1,#0x4000
        0x0000037c:    6008        .`      STR      r0,[r1,#0]
        0x0000037e:    9000        ..      STR      r0,[sp,#0]
        0x00000380:    e7ff        ..      B        0x382 ; main + 678
        0x00000382:    9800        ..      LDR      r0,[sp,#0]
        0x00000384:    2804        .(      CMP      r0,#4
        0x00000386:    d80c        ..      BHI      0x3a2 ; main + 710
        0x00000388:    e7ff        ..      B        0x38a ; main + 686
        0x0000038a:    9800        ..      LDR      r0,[sp,#0]
        0x0000038c:    3001        .0      ADDS     r0,#1
        0x0000038e:    f2420100    B...    MOVW     r1,#0x2000
        0x00000392:    f2c40100    ....    MOVT     r1,#0x4000
        0x00000396:    6008        .`      STR      r0,[r1,#0]
        0x00000398:    e7ff        ..      B        0x39a ; main + 702
        0x0000039a:    9800        ..      LDR      r0,[sp,#0]
        0x0000039c:    3001        .0      ADDS     r0,#1
        0x0000039e:    9000        ..      STR      r0,[sp,#0]
        0x000003a0:    e7ef        ..      B        0x382 ; main + 678
        0x000003a2:    2000        .       MOVS     r0,#0
        0x000003a4:    9001        ..      STR      r0,[sp,#4]
        0x000003a6:    e7ff        ..      B        0x3a8 ; main + 716
        0x000003a8:    9801        ..      LDR      r0,[sp,#4]
        0x000003aa:    2863        c(      CMP      r0,#0x63
        0x000003ac:    d805        ..      BHI      0x3ba ; main + 734
        0x000003ae:    e7ff        ..      B        0x3b0 ; main + 724
        0x000003b0:    e7ff        ..      B        0x3b2 ; main + 726
        0x000003b2:    9801        ..      LDR      r0,[sp,#4]
        0x000003b4:    3001        .0      ADDS     r0,#1
        0x000003b6:    9001        ..      STR      r0,[sp,#4]
        0x000003b8:    e7f6        ..      B        0x3a8 ; main + 716
        0x000003ba:    2000        .       MOVS     r0,#0
        0x000003bc:    9000        ..      STR      r0,[sp,#0]
        0x000003be:    e7ff        ..      B        0x3c0 ; main + 740
        0x000003c0:    9800        ..      LDR      r0,[sp,#0]
        0x000003c2:    2804        .(      CMP      r0,#4
        0x000003c4:    d80b        ..      BHI      0x3de ; main + 770
        0x000003c6:    e7ff        ..      B        0x3c8 ; main + 748
        0x000003c8:    f2420000    B...    MOVW     r0,#0x2000
        0x000003cc:    f2c40000    ....    MOVT     r0,#0x4000
        0x000003d0:    6800        .h      LDR      r0,[r0,#0]
        0x000003d2:    9002        ..      STR      r0,[sp,#8]
        0x000003d4:    e7ff        ..      B        0x3d6 ; main + 762
        0x000003d6:    9800        ..      LDR      r0,[sp,#0]
        0x000003d8:    3001        .0      ADDS     r0,#1
        0x000003da:    9000        ..      STR      r0,[sp,#0]
        0x000003dc:    e7f0        ..      B        0x3c0 ; main + 740
        0x000003de:    2000        .       MOVS     r0,#0
        0x000003e0:    9001        ..      STR      r0,[sp,#4]
        0x000003e2:    e7ff        ..      B        0x3e4 ; main + 776
        0x000003e4:    9801        ..      LDR      r0,[sp,#4]
        0x000003e6:    2813        .(      CMP      r0,#0x13
        0x000003e8:    d805        ..      BHI      0x3f6 ; main + 794
        0x000003ea:    e7ff        ..      B        0x3ec ; main + 784
        0x000003ec:    e7ff        ..      B        0x3ee ; main + 786
        0x000003ee:    9801        ..      LDR      r0,[sp,#4]
        0x000003f0:    3001        .0      ADDS     r0,#1
        0x000003f2:    9001        ..      STR      r0,[sp,#4]
        0x000003f4:    e7f6        ..      B        0x3e4 ; main + 776
        0x000003f6:    f2420303    B...    MOV      r3,#0x2003
        0x000003fa:    f2c40300    ....    MOVT     r3,#0x4000
        0x000003fe:    f44f4003    O..@    MOV      r0,#0x8300
        0x00000402:    6018        .`      STR      r0,[r3,#0]
        0x00000404:    f2420101    B...    MOV      r1,#0x2001
        0x00000408:    f2c40100    ....    MOVT     r1,#0x4000
        0x0000040c:    f04f30aa    O..0    MOV      r0,#0xaaaaaaaa
        0x00000410:    6008        .`      STR      r0,[r1,#0]
        0x00000412:    f2420200    B...    MOVW     r2,#0x2000
        0x00000416:    f2c40200    ....    MOVT     r2,#0x4000
        0x0000041a:    6010        .`      STR      r0,[r2,#0]
        0x0000041c:    2000        .       MOVS     r0,#0
        0x0000041e:    6018        .`      STR      r0,[r3,#0]
        0x00000420:    f44f7240    O.@r    MOV      r2,#0x300
        0x00000424:    601a        .`      STR      r2,[r3,#0]
        0x00000426:    6008        .`      STR      r0,[r1,#0]
        0x00000428:    f2420202    B...    MOV      r2,#0x2002
        0x0000042c:    f2c40200    ....    MOVT     r2,#0x4000
        0x00000430:    f44f0141    O.A.    MOV      r1,#0xc10000
        0x00000434:    6011        .`      STR      r1,[r2,#0]
        0x00000436:    f2420105    B...    MOV      r1,#0x2005
        0x0000043a:    f2c40100    ....    MOVT     r1,#0x4000
        0x0000043e:    6008        .`      STR      r0,[r1,#0]
        0x00000440:    9000        ..      STR      r0,[sp,#0]
        0x00000442:    e7ff        ..      B        0x444 ; main + 872
        0x00000444:    9800        ..      LDR      r0,[sp,#0]
        0x00000446:    2804        .(      CMP      r0,#4
        0x00000448:    d80c        ..      BHI      0x464 ; main + 904
        0x0000044a:    e7ff        ..      B        0x44c ; main + 880
        0x0000044c:    9800        ..      LDR      r0,[sp,#0]
        0x0000044e:    3001        .0      ADDS     r0,#1
        0x00000450:    f2420100    B...    MOVW     r1,#0x2000
        0x00000454:    f2c40100    ....    MOVT     r1,#0x4000
        0x00000458:    6008        .`      STR      r0,[r1,#0]
        0x0000045a:    e7ff        ..      B        0x45c ; main + 896
        0x0000045c:    9800        ..      LDR      r0,[sp,#0]
        0x0000045e:    3001        .0      ADDS     r0,#1
        0x00000460:    9000        ..      STR      r0,[sp,#0]
        0x00000462:    e7ef        ..      B        0x444 ; main + 872
        0x00000464:    2000        .       MOVS     r0,#0
        0x00000466:    9001        ..      STR      r0,[sp,#4]
        0x00000468:    e7ff        ..      B        0x46a ; main + 910
        0x0000046a:    9801        ..      LDR      r0,[sp,#4]
        0x0000046c:    2863        c(      CMP      r0,#0x63
        0x0000046e:    d805        ..      BHI      0x47c ; main + 928
        0x00000470:    e7ff        ..      B        0x472 ; main + 918
        0x00000472:    e7ff        ..      B        0x474 ; main + 920
        0x00000474:    9801        ..      LDR      r0,[sp,#4]
        0x00000476:    3001        .0      ADDS     r0,#1
        0x00000478:    9001        ..      STR      r0,[sp,#4]
        0x0000047a:    e7f6        ..      B        0x46a ; main + 910
        0x0000047c:    2000        .       MOVS     r0,#0
        0x0000047e:    9000        ..      STR      r0,[sp,#0]
        0x00000480:    e7ff        ..      B        0x482 ; main + 934
        0x00000482:    9800        ..      LDR      r0,[sp,#0]
        0x00000484:    2804        .(      CMP      r0,#4
        0x00000486:    d80b        ..      BHI      0x4a0 ; main + 964
        0x00000488:    e7ff        ..      B        0x48a ; main + 942
        0x0000048a:    f2420000    B...    MOVW     r0,#0x2000
        0x0000048e:    f2c40000    ....    MOVT     r0,#0x4000
        0x00000492:    6800        .h      LDR      r0,[r0,#0]
        0x00000494:    9002        ..      STR      r0,[sp,#8]
        0x00000496:    e7ff        ..      B        0x498 ; main + 956
        0x00000498:    9800        ..      LDR      r0,[sp,#0]
        0x0000049a:    3001        .0      ADDS     r0,#1
        0x0000049c:    9000        ..      STR      r0,[sp,#0]
        0x0000049e:    e7f0        ..      B        0x482 ; main + 934
        0x000004a0:    f2420303    B...    MOV      r3,#0x2003
        0x000004a4:    f2c40300    ....    MOVT     r3,#0x4000
        0x000004a8:    f44f4003    O..@    MOV      r0,#0x8300
        0x000004ac:    6018        .`      STR      r0,[r3,#0]
        0x000004ae:    f2420101    B...    MOV      r1,#0x2001
        0x000004b2:    f2c40100    ....    MOVT     r1,#0x4000
        0x000004b6:    f04f3055    O.U0    MOV      r0,#0x55555555
        0x000004ba:    6008        .`      STR      r0,[r1,#0]
        0x000004bc:    f2420200    B...    MOVW     r2,#0x2000
        0x000004c0:    f2c40200    ....    MOVT     r2,#0x4000
        0x000004c4:    6010        .`      STR      r0,[r2,#0]
        0x000004c6:    2000        .       MOVS     r0,#0
        0x000004c8:    6018        .`      STR      r0,[r3,#0]
        0x000004ca:    f44f7240    O.@r    MOV      r2,#0x300
        0x000004ce:    601a        .`      STR      r2,[r3,#0]
        0x000004d0:    6008        .`      STR      r0,[r1,#0]
        0x000004d2:    f2420202    B...    MOV      r2,#0x2002
        0x000004d6:    f2c40200    ....    MOVT     r2,#0x4000
        0x000004da:    f44f0141    O.A.    MOV      r1,#0xc10000
        0x000004de:    6011        .`      STR      r1,[r2,#0]
        0x000004e0:    f2420105    B...    MOV      r1,#0x2005
        0x000004e4:    f2c40100    ....    MOVT     r1,#0x4000
        0x000004e8:    6008        .`      STR      r0,[r1,#0]
        0x000004ea:    9000        ..      STR      r0,[sp,#0]
        0x000004ec:    e7ff        ..      B        0x4ee ; main + 1042
        0x000004ee:    9800        ..      LDR      r0,[sp,#0]
        0x000004f0:    2804        .(      CMP      r0,#4
        0x000004f2:    d80c        ..      BHI      0x50e ; main + 1074
        0x000004f4:    e7ff        ..      B        0x4f6 ; main + 1050
        0x000004f6:    9800        ..      LDR      r0,[sp,#0]
        0x000004f8:    3001        .0      ADDS     r0,#1
        0x000004fa:    f2420100    B...    MOVW     r1,#0x2000
        0x000004fe:    f2c40100    ....    MOVT     r1,#0x4000
        0x00000502:    6008        .`      STR      r0,[r1,#0]
        0x00000504:    e7ff        ..      B        0x506 ; main + 1066
        0x00000506:    9800        ..      LDR      r0,[sp,#0]
        0x00000508:    3001        .0      ADDS     r0,#1
        0x0000050a:    9000        ..      STR      r0,[sp,#0]
        0x0000050c:    e7ef        ..      B        0x4ee ; main + 1042
        0x0000050e:    2000        .       MOVS     r0,#0
        0x00000510:    9001        ..      STR      r0,[sp,#4]
        0x00000512:    e7ff        ..      B        0x514 ; main + 1080
        0x00000514:    9801        ..      LDR      r0,[sp,#4]
        0x00000516:    2863        c(      CMP      r0,#0x63
        0x00000518:    d805        ..      BHI      0x526 ; main + 1098
        0x0000051a:    e7ff        ..      B        0x51c ; main + 1088
        0x0000051c:    e7ff        ..      B        0x51e ; main + 1090
        0x0000051e:    9801        ..      LDR      r0,[sp,#4]
        0x00000520:    3001        .0      ADDS     r0,#1
        0x00000522:    9001        ..      STR      r0,[sp,#4]
        0x00000524:    e7f6        ..      B        0x514 ; main + 1080
        0x00000526:    2000        .       MOVS     r0,#0
        0x00000528:    9000        ..      STR      r0,[sp,#0]
        0x0000052a:    e7ff        ..      B        0x52c ; main + 1104
        0x0000052c:    9800        ..      LDR      r0,[sp,#0]
        0x0000052e:    2804        .(      CMP      r0,#4
        0x00000530:    d80b        ..      BHI      0x54a ; main + 1134
        0x00000532:    e7ff        ..      B        0x534 ; main + 1112
        0x00000534:    f2420000    B...    MOVW     r0,#0x2000
        0x00000538:    f2c40000    ....    MOVT     r0,#0x4000
        0x0000053c:    6800        .h      LDR      r0,[r0,#0]
        0x0000053e:    9002        ..      STR      r0,[sp,#8]
        0x00000540:    e7ff        ..      B        0x542 ; main + 1126
        0x00000542:    9800        ..      LDR      r0,[sp,#0]
        0x00000544:    3001        .0      ADDS     r0,#1
        0x00000546:    9000        ..      STR      r0,[sp,#0]
        0x00000548:    e7f0        ..      B        0x52c ; main + 1104
        0x0000054a:    f2420303    B...    MOV      r3,#0x2003
        0x0000054e:    f2c40300    ....    MOVT     r3,#0x4000
        0x00000552:    f44f4003    O..@    MOV      r0,#0x8300
        0x00000556:    6018        .`      STR      r0,[r3,#0]
        0x00000558:    f2420101    B...    MOV      r1,#0x2001
        0x0000055c:    f2c40100    ....    MOVT     r1,#0x4000
        0x00000560:    f04f30ff    O..0    MOV      r0,#0xffffffff
        0x00000564:    6008        .`      STR      r0,[r1,#0]
        0x00000566:    f2420200    B...    MOVW     r2,#0x2000
        0x0000056a:    f2c40200    ....    MOVT     r2,#0x4000
        0x0000056e:    6010        .`      STR      r0,[r2,#0]
        0x00000570:    2000        .       MOVS     r0,#0
        0x00000572:    6018        .`      STR      r0,[r3,#0]
        0x00000574:    f44f7240    O.@r    MOV      r2,#0x300
        0x00000578:    601a        .`      STR      r2,[r3,#0]
        0x0000057a:    6008        .`      STR      r0,[r1,#0]
        0x0000057c:    f2420202    B...    MOV      r2,#0x2002
        0x00000580:    f2c40200    ....    MOVT     r2,#0x4000
        0x00000584:    f44f0141    O.A.    MOV      r1,#0xc10000
        0x00000588:    6011        .`      STR      r1,[r2,#0]
        0x0000058a:    f2420105    B...    MOV      r1,#0x2005
        0x0000058e:    f2c40100    ....    MOVT     r1,#0x4000
        0x00000592:    6008        .`      STR      r0,[r1,#0]
        0x00000594:    9000        ..      STR      r0,[sp,#0]
        0x00000596:    e7ff        ..      B        0x598 ; main + 1212
        0x00000598:    9800        ..      LDR      r0,[sp,#0]
        0x0000059a:    2804        .(      CMP      r0,#4
        0x0000059c:    d80c        ..      BHI      0x5b8 ; main + 1244
        0x0000059e:    e7ff        ..      B        0x5a0 ; main + 1220
        0x000005a0:    9800        ..      LDR      r0,[sp,#0]
        0x000005a2:    3001        .0      ADDS     r0,#1
        0x000005a4:    f2420100    B...    MOVW     r1,#0x2000
        0x000005a8:    f2c40100    ....    MOVT     r1,#0x4000
        0x000005ac:    6008        .`      STR      r0,[r1,#0]
        0x000005ae:    e7ff        ..      B        0x5b0 ; main + 1236
        0x000005b0:    9800        ..      LDR      r0,[sp,#0]
        0x000005b2:    3001        .0      ADDS     r0,#1
        0x000005b4:    9000        ..      STR      r0,[sp,#0]
        0x000005b6:    e7ef        ..      B        0x598 ; main + 1212
        0x000005b8:    2000        .       MOVS     r0,#0
        0x000005ba:    9001        ..      STR      r0,[sp,#4]
        0x000005bc:    e7ff        ..      B        0x5be ; main + 1250
        0x000005be:    9801        ..      LDR      r0,[sp,#4]
        0x000005c0:    2863        c(      CMP      r0,#0x63
        0x000005c2:    d805        ..      BHI      0x5d0 ; main + 1268
        0x000005c4:    e7ff        ..      B        0x5c6 ; main + 1258
        0x000005c6:    e7ff        ..      B        0x5c8 ; main + 1260
        0x000005c8:    9801        ..      LDR      r0,[sp,#4]
        0x000005ca:    3001        .0      ADDS     r0,#1
        0x000005cc:    9001        ..      STR      r0,[sp,#4]
        0x000005ce:    e7f6        ..      B        0x5be ; main + 1250
        0x000005d0:    2000        .       MOVS     r0,#0
        0x000005d2:    9000        ..      STR      r0,[sp,#0]
        0x000005d4:    e7ff        ..      B        0x5d6 ; main + 1274
        0x000005d6:    9800        ..      LDR      r0,[sp,#0]
        0x000005d8:    2804        .(      CMP      r0,#4
        0x000005da:    d80b        ..      BHI      0x5f4 ; main + 1304
        0x000005dc:    e7ff        ..      B        0x5de ; main + 1282
        0x000005de:    f2420000    B...    MOVW     r0,#0x2000
        0x000005e2:    f2c40000    ....    MOVT     r0,#0x4000
        0x000005e6:    6800        .h      LDR      r0,[r0,#0]
        0x000005e8:    9002        ..      STR      r0,[sp,#8]
        0x000005ea:    e7ff        ..      B        0x5ec ; main + 1296
        0x000005ec:    9800        ..      LDR      r0,[sp,#0]
        0x000005ee:    3001        .0      ADDS     r0,#1
        0x000005f0:    9000        ..      STR      r0,[sp,#0]
        0x000005f2:    e7f0        ..      B        0x5d6 ; main + 1274
        0x000005f4:    f2420303    B...    MOV      r3,#0x2003
        0x000005f8:    f2c40300    ....    MOVT     r3,#0x4000
        0x000005fc:    f44f4003    O..@    MOV      r0,#0x8300
        0x00000600:    6018        .`      STR      r0,[r3,#0]
        0x00000602:    f2420101    B...    MOV      r1,#0x2001
        0x00000606:    f2c40100    ....    MOVT     r1,#0x4000
        0x0000060a:    f64d60af    M..`    MOV      r0,#0xdeaf
        0x0000060e:    f6ca30cd    ...0    MOVT     r0,#0xabcd
        0x00000612:    6008        .`      STR      r0,[r1,#0]
        0x00000614:    f2420200    B...    MOVW     r2,#0x2000
        0x00000618:    f2c40200    ....    MOVT     r2,#0x4000
        0x0000061c:    f64a30cd    J..0    MOV      r0,#0xabcd
        0x00000620:    f6cd60af    ...`    MOVT     r0,#0xdeaf
        0x00000624:    6010        .`      STR      r0,[r2,#0]
        0x00000626:    2000        .       MOVS     r0,#0
        0x00000628:    6018        .`      STR      r0,[r3,#0]
        0x0000062a:    f44f7240    O.@r    MOV      r2,#0x300
        0x0000062e:    601a        .`      STR      r2,[r3,#0]
        0x00000630:    6008        .`      STR      r0,[r1,#0]
        0x00000632:    f2420202    B...    MOV      r2,#0x2002
        0x00000636:    f2c40200    ....    MOVT     r2,#0x4000
        0x0000063a:    f44f0141    O.A.    MOV      r1,#0xc10000
        0x0000063e:    6011        .`      STR      r1,[r2,#0]
        0x00000640:    f2420105    B...    MOV      r1,#0x2005
        0x00000644:    f2c40100    ....    MOVT     r1,#0x4000
        0x00000648:    6008        .`      STR      r0,[r1,#0]
        0x0000064a:    9000        ..      STR      r0,[sp,#0]
        0x0000064c:    e7ff        ..      B        0x64e ; main + 1394
        0x0000064e:    9800        ..      LDR      r0,[sp,#0]
        0x00000650:    2804        .(      CMP      r0,#4
        0x00000652:    d80c        ..      BHI      0x66e ; main + 1426
        0x00000654:    e7ff        ..      B        0x656 ; main + 1402
        0x00000656:    9800        ..      LDR      r0,[sp,#0]
        0x00000658:    3001        .0      ADDS     r0,#1
        0x0000065a:    f2420100    B...    MOVW     r1,#0x2000
        0x0000065e:    f2c40100    ....    MOVT     r1,#0x4000
        0x00000662:    6008        .`      STR      r0,[r1,#0]
        0x00000664:    e7ff        ..      B        0x666 ; main + 1418
        0x00000666:    9800        ..      LDR      r0,[sp,#0]
        0x00000668:    3001        .0      ADDS     r0,#1
        0x0000066a:    9000        ..      STR      r0,[sp,#0]
        0x0000066c:    e7ef        ..      B        0x64e ; main + 1394
        0x0000066e:    2000        .       MOVS     r0,#0
        0x00000670:    9001        ..      STR      r0,[sp,#4]
        0x00000672:    e7ff        ..      B        0x674 ; main + 1432
        0x00000674:    9801        ..      LDR      r0,[sp,#4]
        0x00000676:    2863        c(      CMP      r0,#0x63
        0x00000678:    d805        ..      BHI      0x686 ; main + 1450
        0x0000067a:    e7ff        ..      B        0x67c ; main + 1440
        0x0000067c:    e7ff        ..      B        0x67e ; main + 1442
        0x0000067e:    9801        ..      LDR      r0,[sp,#4]
        0x00000680:    3001        .0      ADDS     r0,#1
        0x00000682:    9001        ..      STR      r0,[sp,#4]
        0x00000684:    e7f6        ..      B        0x674 ; main + 1432
        0x00000686:    2000        .       MOVS     r0,#0
        0x00000688:    9000        ..      STR      r0,[sp,#0]
        0x0000068a:    e7ff        ..      B        0x68c ; main + 1456
        0x0000068c:    9800        ..      LDR      r0,[sp,#0]
        0x0000068e:    2804        .(      CMP      r0,#4
        0x00000690:    d80b        ..      BHI      0x6aa ; main + 1486
        0x00000692:    e7ff        ..      B        0x694 ; main + 1464
        0x00000694:    f2420000    B...    MOVW     r0,#0x2000
        0x00000698:    f2c40000    ....    MOVT     r0,#0x4000
        0x0000069c:    6800        .h      LDR      r0,[r0,#0]
        0x0000069e:    9002        ..      STR      r0,[sp,#8]
        0x000006a0:    e7ff        ..      B        0x6a2 ; main + 1478
        0x000006a2:    9800        ..      LDR      r0,[sp,#0]
        0x000006a4:    3001        .0      ADDS     r0,#1
        0x000006a6:    9000        ..      STR      r0,[sp,#0]
        0x000006a8:    e7f0        ..      B        0x68c ; main + 1456
        0x000006aa:    f2420303    B...    MOV      r3,#0x2003
        0x000006ae:    f2c40300    ....    MOVT     r3,#0x4000
        0x000006b2:    f44f4003    O..@    MOV      r0,#0x8300
        0x000006b6:    6018        .`      STR      r0,[r3,#0]
        0x000006b8:    f2420101    B...    MOV      r1,#0x2001
        0x000006bc:    f2c40100    ....    MOVT     r1,#0x4000
        0x000006c0:    f64a30cd    J..0    MOV      r0,#0xabcd
        0x000006c4:    f6cd60af    ...`    MOVT     r0,#0xdeaf
        0x000006c8:    6008        .`      STR      r0,[r1,#0]
        0x000006ca:    f2420200    B...    MOVW     r2,#0x2000
        0x000006ce:    f2c40200    ....    MOVT     r2,#0x4000
        0x000006d2:    f64d60af    M..`    MOV      r0,#0xdeaf
        0x000006d6:    f6ca30cd    ...0    MOVT     r0,#0xabcd
        0x000006da:    6010        .`      STR      r0,[r2,#0]
        0x000006dc:    2000        .       MOVS     r0,#0
        0x000006de:    6018        .`      STR      r0,[r3,#0]
        0x000006e0:    f44f7240    O.@r    MOV      r2,#0x300
        0x000006e4:    601a        .`      STR      r2,[r3,#0]
        0x000006e6:    6008        .`      STR      r0,[r1,#0]
        0x000006e8:    f2420202    B...    MOV      r2,#0x2002
        0x000006ec:    f2c40200    ....    MOVT     r2,#0x4000
        0x000006f0:    f44f0141    O.A.    MOV      r1,#0xc10000
        0x000006f4:    6011        .`      STR      r1,[r2,#0]
        0x000006f6:    f2420105    B...    MOV      r1,#0x2005
        0x000006fa:    f2c40100    ....    MOVT     r1,#0x4000
        0x000006fe:    6008        .`      STR      r0,[r1,#0]
        0x00000700:    9000        ..      STR      r0,[sp,#0]
        0x00000702:    e7ff        ..      B        0x704 ; main + 1576
        0x00000704:    9800        ..      LDR      r0,[sp,#0]
        0x00000706:    2804        .(      CMP      r0,#4
        0x00000708:    d80c        ..      BHI      0x724 ; main + 1608
        0x0000070a:    e7ff        ..      B        0x70c ; main + 1584
        0x0000070c:    9800        ..      LDR      r0,[sp,#0]
        0x0000070e:    3001        .0      ADDS     r0,#1
        0x00000710:    f2420100    B...    MOVW     r1,#0x2000
        0x00000714:    f2c40100    ....    MOVT     r1,#0x4000
        0x00000718:    6008        .`      STR      r0,[r1,#0]
        0x0000071a:    e7ff        ..      B        0x71c ; main + 1600
        0x0000071c:    9800        ..      LDR      r0,[sp,#0]
        0x0000071e:    3001        .0      ADDS     r0,#1
        0x00000720:    9000        ..      STR      r0,[sp,#0]
        0x00000722:    e7ef        ..      B        0x704 ; main + 1576
        0x00000724:    2000        .       MOVS     r0,#0
        0x00000726:    9001        ..      STR      r0,[sp,#4]
        0x00000728:    e7ff        ..      B        0x72a ; main + 1614
        0x0000072a:    9801        ..      LDR      r0,[sp,#4]
        0x0000072c:    f242710f    B..q    MOV      r1,#0x270f
        0x00000730:    4288        .B      CMP      r0,r1
        0x00000732:    d805        ..      BHI      0x740 ; main + 1636
        0x00000734:    e7ff        ..      B        0x736 ; main + 1626
        0x00000736:    e7ff        ..      B        0x738 ; main + 1628
        0x00000738:    9801        ..      LDR      r0,[sp,#4]
        0x0000073a:    3001        .0      ADDS     r0,#1
        0x0000073c:    9001        ..      STR      r0,[sp,#4]
        0x0000073e:    e7f4        ..      B        0x72a ; main + 1614
        0x00000740:    f44f617f    O..a    MOV      r1,#0xff0
        0x00000744:    2007        .       MOVS     r0,#7
        0x00000746:    6008        .`      STR      r0,[r1,#0]
        0x00000748:    2000        .       MOVS     r0,#0
        0x0000074a:    9001        ..      STR      r0,[sp,#4]
        0x0000074c:    e7ff        ..      B        0x74e ; main + 1650
        0x0000074e:    9801        ..      LDR      r0,[sp,#4]
        0x00000750:    2813        .(      CMP      r0,#0x13
        0x00000752:    d805        ..      BHI      0x760 ; main + 1668
        0x00000754:    e7ff        ..      B        0x756 ; main + 1658
        0x00000756:    e7ff        ..      B        0x758 ; main + 1660
        0x00000758:    9801        ..      LDR      r0,[sp,#4]
        0x0000075a:    3001        .0      ADDS     r0,#1
        0x0000075c:    9001        ..      STR      r0,[sp,#4]
        0x0000075e:    e7f6        ..      B        0x74e ; main + 1650
        0x00000760:    e7ff        ..      B        0x762 ; main + 1670
        0x00000762:    e7fe        ..      B        0x762 ; main + 1670
    $d.realdata
    Region$$Table$$Base
        0x00000764:    00000774    t...    DCD    1908
        0x00000768:    20000000    ...     DCD    536870912
        0x0000076c:    00000404    ....    DCD    1028
        0x00000770:    00000070    p...    DCD    112
    Region$$Table$$Limit

====================================

** Section #2

    Name        : ER_ZI
    Type        : SHT_NOBITS (0x00000008)
    Flags       : SHF_ALLOC + SHF_WRITE (0x00000003)
    Addr        : 0x20000000
    File Offset : 1964 (0x7ac)
    Size        : 1028 bytes (0x404)
    Link        : SHN_UNDEF
    Info        : 0
    Alignment   : 8
    Entry Size  : 0


====================================

** Section #3

    Name        : .debug_abbrev
    Type        : SHT_PROGBITS (0x00000001)
    Flags       : None (0x00000000)
    Addr        : 0x00000000
    File Offset : 1964 (0x7ac)
    Size        : 126 bytes (0x7e)
    Link        : SHN_UNDEF
    Info        : 0
    Alignment   : 1
    Entry Size  : 0


====================================

** Section #4

    Name        : .debug_frame
    Type        : SHT_PROGBITS (0x00000001)
    Flags       : None (0x00000000)
    Addr        : 0x00000000
    File Offset : 2090 (0x82a)
    Size        : 440 bytes (0x1b8)
    Link        : SHN_UNDEF
    Info        : 0
    Alignment   : 1
    Entry Size  : 0


====================================

** Section #5

    Name        : .debug_info
    Type        : SHT_PROGBITS (0x00000001)
    Flags       : None (0x00000000)
    Addr        : 0x00000000
    File Offset : 2530 (0x9e2)
    Size        : 339 bytes (0x153)
    Link        : SHN_UNDEF
    Info        : 0
    Alignment   : 1
    Entry Size  : 0


====================================

** Section #6

    Name        : .debug_line
    Type        : SHT_PROGBITS (0x00000001)
    Flags       : None (0x00000000)
    Addr        : 0x00000000
    File Offset : 2869 (0xb35)
    Size        : 1306 bytes (0x51a)
    Link        : SHN_UNDEF
    Info        : 0
    Alignment   : 1
    Entry Size  : 0


====================================

** Section #7

    Name        : .debug_str
    Type        : SHT_PROGBITS (0x00000001)
    Flags       : None (0x00000000)
    Addr        : 0x00000000
    File Offset : 4175 (0x104f)
    Size        : 196 bytes (0xc4)
    Link        : SHN_UNDEF
    Info        : 0
    Alignment   : 1
    Entry Size  : 0


====================================

** Section #8

    Name        : .symtab
    Type        : SHT_SYMTAB (0x00000002)
    Flags       : None (0x00000000)
    Addr        : 0x00000000
    File Offset : 4372 (0x1114)
    Size        : 3040 bytes (0xbe0)
    Link        : Section 9 (.strtab)
    Info        : Last local symbol no = 123
    Alignment   : 4
    Entry Size  : 16


====================================

** Section #9

    Name        : .strtab
    Type        : SHT_STRTAB (0x00000003)
    Flags       : None (0x00000000)
    Addr        : 0x00000000
    File Offset : 7412 (0x1cf4)
    Size        : 3320 bytes (0xcf8)
    Link        : SHN_UNDEF
    Info        : 0
    Alignment   : 1
    Entry Size  : 0


====================================

** Section #10

    Name        : .note
    Type        : SHT_NOTE (0x00000007)
    Flags       : None (0x00000000)
    Addr        : 0x00000000
    File Offset : 10732 (0x29ec)
    Size        : 24 bytes (0x18)
    Link        : SHN_UNDEF
    Info        : 0
    Alignment   : 4
    Entry Size  : 0

        Section     Segment
    ====================================

              1           0
              2           0

====================================

** Section #11

    Name        : .comment
    Type        : SHT_PROGBITS (0x00000001)
    Flags       : None (0x00000000)
    Addr        : 0x00000000
    File Offset : 10756 (0x2a04)
    Size        : 1212 bytes (0x4bc)
    Link        : SHN_UNDEF
    Info        : 0
    Alignment   : 1
    Entry Size  : 0

    Component: Arm Compiler for Embedded 6.21 Tool: armlink [5ec1fa00]
    ArmLink --strict --callgraph --load_addr_map_info --map --symbols --xref --diag_suppress=9931 --ro_base=0x0 --rw_base=0x20000000 --cpu=Cortex-M4 --fpu=SoftVFP --first=__Vectors --list=.\Listings\first.map --output=.\Objects\first.axf --entry=Reset_Handler --info=summarysizes,sizes,totals,unused,veneers

    C:\Keil_v5\ARM\ARMCLANG\Bin\..\lib\armlib\c_w.l
    C:\Keil_v5\ARM\ARMCLANG\Bin\..\lib\armlib\fz_ws.l
    C:\Keil_v5\ARM\ARMCLANG\Bin\..\lib\armlib\h_w.l
    C:\Keil_v5\ARM\ARMCLANG\Bin\..\lib\libcxx\libcpp-experimental_w.l
    C:\Keil_v5\ARM\ARMCLANG\Bin\..\lib\libcxx\libcpp_w.l
    C:\Keil_v5\ARM\ARMCLANG\Bin\..\lib\libcxx\libcppabi_w.l
    C:\Keil_v5\ARM\ARMCLANG\Bin\..\lib\armlib\m_ws.l
    C:\Keil_v5\ARM\ARMCLANG\Bin\..\lib\armlib\vfpsupport.l
    Input Comments:
    
    startup.o
    
    Component: Arm Compiler for Embedded 6.21 Tool: armasm [5ec1f200]
    armasm --debug --diag_suppress=9931,A1950W --cpu=Cortex-M4 --fpu=None --apcs=/softfp  -IC:/Users/ADMIN/AppData/Local/Arm/Packs/ARM/CMSIS/5.9.0/Device/ARM/ARMCM4/Include --predefine="__EVAL SETA 1" --predefine="__UVISION_VERSION SETA 539" --p
    first.o
    
    
    Component: Arm Compiler for Embedded 6.21 Tool: armclang [5ec1fd00]
    

====================================

** Section #12

    Name        : .shstrtab
    Type        : SHT_STRTAB (0x00000003)
    Flags       : None (0x00000000)
    Addr        : 0x00000000
    File Offset : 11968 (0x2ec0)
    Size        : 124 bytes (0x7c)
    Link        : SHN_UNDEF
    Info        : 0
    Alignment   : 1
    Entry Size  : 0


====================================

